(dp1
S'failed'
p2
(lp3
sS'source_names'
p4
(lp5
S'.'
asS'ids'
p6
(dp7
I1
(S'/Users/miranda/Documents/School/Graduate/Statistical Learning/scotus_proj/tests/test_ingest_scdb.py'
S'scotus_proj.tests.test_ingest_scdb'
p8
S'TestIngestSCDB.test_add_case'
tp9
sI2
(S'/Users/miranda/Documents/School/Graduate/Statistical Learning/scotus_proj/tests/test_ingest_scdb.py'
g8
S'TestIngestSCDB.test_add_justices'
tp10
sI3
(S'/Users/miranda/Documents/School/Graduate/Statistical Learning/scotus_proj/tests/test_ingest_scdb.py'
g8
S'TestIngestSCDB.test_add_votes'
tp11
sI4
(S'/Users/miranda/Documents/School/Graduate/Statistical Learning/scotus_proj/tests/test_models.py'
S'scotus_proj.tests.test_models'
p12
S'TestCase.test_questions'
tp13
sI5
(S'/Users/miranda/Documents/School/Graduate/Statistical Learning/scotus_proj/tests/test_models.py'
g12
S'TestCase.test_winner'
tp14
sI6
(S'/Users/miranda/Documents/School/Graduate/Statistical Learning/scotus_proj/tests/test_parse_scdb.py'
S'scotus_proj.tests.test_parse_scdb'
p15
S'test_parse_case'
tp16
sI7
(S'/Users/miranda/Documents/School/Graduate/Statistical Learning/scotus_proj/tests/test_parse_scdb.py'
g15
S'test_parse_male_justice'
tp17
sI8
(S'/Users/miranda/Documents/School/Graduate/Statistical Learning/scotus_proj/tests/test_parse_scdb.py'
g15
S'test_parse_female_justice'
tp18
sI9
(S'/Users/miranda/Documents/School/Graduate/Statistical Learning/scotus_proj/tests/test_parse_scdb.py'
g15
S'test_parse_parties'
tp19
sI10
(S'/Users/miranda/Documents/School/Graduate/Statistical Learning/scotus_proj/tests/test_parse_scdb.py'
g15
S'test_parse_vote'
tp20
ss.